; Function Attrs: nounwind uwtable
define hidden void @_mi_fprintf(ptr noundef readonly captures(address) %0, ptr noundef %1, ptr noundef %2, ...) local_unnamed_addr #1 {
  %4 = alloca [512 x i8], align 16
  %5 = alloca [1 x %struct.__va_list_tag], align 16
  call void @llvm.lifetime.start.p0(i64 24, ptr nonnull %5) #18
  call void @llvm.va_start.p0(ptr nonnull %5)
  call void @llvm.lifetime.start.p0(i64 512, ptr nonnull %4) #18
  %6 = icmp eq ptr %2, null
  br i1 %6, label %mi_vfprintf.exit, label %7

7:                                                ; preds = %3
  %8 = call fastcc noundef zeroext i1 @mi_recurse_enter_prim() #17
  br i1 %8, label %9, label %mi_vfprintf.exit

9:                                                ; preds = %7
  %10 = call i32 @_mi_vsnprintf(ptr noundef nonnull %4, i64 noundef 511, ptr noundef nonnull %2, ptr noundef nonnull %5) #16
  call fastcc void @mi_recurse_exit_prim() #17
  %11 = icmp eq ptr %0, null
  %12 = load ptr, ptr @stdout, align 8
  %13 = icmp eq ptr %0, %12
  %or.cond.i.i = select i1 %11, i1 true, i1 %13
  %14 = load ptr, ptr @stderr, align 8
  %15 = icmp eq ptr %0, %14
  %or.cond17.i.i = select i1 %or.cond.i.i, i1 true, i1 %15
  br i1 %or.cond17.i.i, label %16, label %24

16:                                               ; preds = %9
  %17 = call fastcc noundef zeroext i1 @mi_recurse_enter_prim() #17
  br i1 %17, label %18, label %mi_vfprintf.exit

18:                                               ; preds = %16
  %19 = load atomic i64, ptr @mi_out_arg acquire, align 8
  %20 = inttoptr i64 %19 to ptr
  %21 = load volatile ptr, ptr @mi_out_default, align 8, !tbaa !6
  %22 = icmp eq ptr %21, null
  %23 = select i1 %22, ptr @mi_out_buf, ptr %21
  call void %23(ptr noundef nonnull %4, ptr noundef %20) #16
  call fastcc void @mi_recurse_exit_prim() #17
  br label %mi_vfprintf.exit

24:                                               ; preds = %9
  call void %0(ptr noundef nonnull %4, ptr noundef %1) #16
  br label %mi_vfprintf.exit

mi_vfprintf.exit:                                 ; preds = %3, %7, %16, %18, %24
  call void @llvm.lifetime.end.p0(i64 512, ptr nonnull %4) #18
  call void @llvm.va_end.p0(ptr nonnull %5)
  call void @llvm.lifetime.end.p0(i64 24, ptr nonnull %5) #18
  ret void
}